(i__main__
ForecastLocation
p1
(dp2
S'current'
p3
(i__main__
ForecastDataset
p4
(dp5
S'weathermap'
p6
NsS'wind_dir_numeric'
p7
V90
p8
sS'high'
p9
V15
p10
sS'timezone'
p11
V2
sS'sunrise'
p12
V7:36 AM
p13
sS'uv_index'
p14
V0
sS'city'
p15
VAthens
p16
sS'last_update'
p17
V12/17/12 4:50 PM Local Time
p18
sS'condition_text'
p19
VMostly Cloudy
p20
sS'low'
p21
V15
p22
sS'wind_gusts'
p23
VN/A
p24
sS'condition_code'
p25
V28
p26
sS'bar_read'
p27
V1010.2
p28
sS'visibility'
p29
V10.0
p30
sS'uv_text'
p31
VLow
p32
sS'wind_dir'
p33
VE
sS'wind_speed'
p34
V8
sS'moon_phase'
p35
VWaxing Crescent
p36
sS'observatory'
p37
VAthens/Venizelos
p38
sS'moon_icon'
p39
V4
sS'dew_point'
p40
V11
p41
sS'country'
p42
VGreece
p43
sS'day_of_week'
p44
VToday
p45
sS'humidity'
p46
V77
p47
sS'precip'
p48
VN/A
p49
sS'sunset'
p50
V5:08 PM
p51
sS'bar_desc'
p52
Vsteady
p53
sbsS'timestamp'
p54
cdatetime
datetime
p55
(S'\x07\xdc\x0c\x11\x11\x10\x04\x081\x02'
tRp56
sS'day'
p57
(lp58
(i__main__
ForecastDataset
p59
(dp60
g6
Nsg7
VN/A
p61
sg9
VN/A
p62
sg11
V2
sg12
V7:36 AM
p63
sg14
g49
sg15
g16
sg17
V12/17/12 4:16 PM Local Time
p64
sg19
VN/A
p65
sg21
V10
p66
sg23
VN/A
p67
sg25
V44
p68
sg27
g49
sg29
g49
sg31
g49
sg33
VN/A
p69
sg34
VN/A
p70
sg35
g49
sg37
g49
sg39
g49
sg40
g49
sg42
g43
sg44
VMonday
p71
sg46
VN/A
p72
sg48
V40
p73
sg50
V5:08 PM
p74
sg52
g49
sba(i__main__
ForecastDataset
p75
(dp76
g6
Nsg7
V208
p77
sg9
V17
p78
sg11
V2
sg12
V7:36 AM
p79
sg14
g49
sg15
g16
sg17
g64
sg19
VT-Storms
p80
sg21
V7
sg23
VN/A
p81
sg25
V4
sg27
g49
sg29
g49
sg31
g49
sg33
VSSW
p82
sg34
V21
p83
sg35
g49
sg37
g49
sg39
g49
sg40
g49
sg42
g43
sg44
VTuesday
p84
sg46
V70
p85
sg48
V80
p86
sg50
V5:08 PM
p87
sg52
g49
sba(i__main__
ForecastDataset
p88
(dp89
g6
Nsg7
V332
p90
sg9
V13
p91
sg11
V2
sg12
V7:37 AM
p92
sg14
g49
sg15
g16
sg17
g64
sg19
VPartly Cloudy
p93
sg21
V6
sg23
VN/A
p94
sg25
V30
p95
sg27
g49
sg29
g49
sg31
g49
sg33
VNNW
p96
sg34
V24
p97
sg35
g49
sg37
g49
sg39
g49
sg40
g49
sg42
g43
sg44
VWednesday
p98
sg46
V69
p99
sg48
V20
p100
sg50
V5:08 PM
p101
sg52
g49
sba(i__main__
ForecastDataset
p102
(dp103
g6
Nsg7
V357
p104
sg9
V11
p105
sg11
V2
sg12
V7:37 AM
p106
sg14
g49
sg15
g16
sg17
g64
sg19
VPartly Cloudy
p107
sg21
V5
sg23
VN/A
p108
sg25
V30
p109
sg27
g49
sg29
g49
sg31
g49
sg33
VN
sg34
V26
p110
sg35
g49
sg37
g49
sg39
g49
sg40
g49
sg42
g43
sg44
VThursday
p111
sg46
V65
p112
sg48
V20
p113
sg50
V5:09 PM
p114
sg52
g49
sba(i__main__
ForecastDataset
p115
(dp116
g6
Nsg7
V208
p117
sg9
V12
p118
sg11
V2
sg12
V7:38 AM
p119
sg14
g49
sg15
g16
sg17
g64
sg19
VMostly Cloudy
p120
sg21
V5
sg23
VN/A
p121
sg25
V28
p122
sg27
g49
sg29
g49
sg31
g49
sg33
VSSW
p123
sg34
V5
sg35
g49
sg37
g49
sg39
g49
sg40
g49
sg42
g43
sg44
VFriday
p124
sg46
V61
p125
sg48
V0
sg50
V5:09 PM
p126
sg52
g49
sba(i__main__
ForecastDataset
p127
(dp128
g6
Nsg7
V40
p129
sg9
V12
p130
sg11
V2
sg12
V7:38 AM
p131
sg14
g49
sg15
g16
sg17
g64
sg19
VRain
p132
sg21
V6
sg23
VN/A
p133
sg25
V12
p134
sg27
g49
sg29
g49
sg31
g49
sg33
VNE
p135
sg34
V11
p136
sg35
g49
sg37
g49
sg39
g49
sg40
g49
sg42
g43
sg44
VSaturday
p137
sg46
V75
p138
sg48
V80
p139
sg50
V5:10 PM
p140
sg52
g49
sba(i__main__
ForecastDataset
p141
(dp142
g6
Nsg7
V17
p143
sg9
V13
p144
sg11
V2
sg12
V7:39 AM
p145
sg14
g49
sg15
g16
sg17
g64
sg19
VMostly Cloudy
p146
sg21
V6
sg23
VN/A
p147
sg25
V28
p148
sg27
g49
sg29
g49
sg31
g49
sg33
VNNE
p149
sg34
V11
p150
sg35
g49
sg37
g49
sg39
g49
sg40
g49
sg42
g43
sg44
VSunday
p151
sg46
V70
p152
sg48
V20
p153
sg50
V5:10 PM
p154
sg52
g49
sba(i__main__
ForecastDataset
p155
(dp156
g6
Nsg7
V356
p157
sg9
V13
p158
sg11
V2
sg12
V7:39 AM
p159
sg14
g49
sg15
g16
sg17
g64
sg19
VRain
p160
sg21
V7
sg23
VN/A
p161
sg25
V12
p162
sg27
g49
sg29
g49
sg31
g49
sg33
VN
sg34
V26
p163
sg35
g49
sg37
g49
sg39
g49
sg40
g49
sg42
g43
sg44
VMonday
p164
sg46
V69
p165
sg48
V80
p166
sg50
V5:11 PM
p167
sg52
g49
sba(i__main__
ForecastDataset
p168
(dp169
g6
Nsg7
V6
sg9
V14
p170
sg11
V2
sg12
V7:40 AM
p171
sg14
g49
sg15
g16
sg17
g64
sg19
VPartly Cloudy
p172
sg21
V7
sg23
VN/A
p173
sg25
V30
p174
sg27
g49
sg29
g49
sg31
g49
sg33
VN
sg34
V14
p175
sg35
g49
sg37
g49
sg39
g49
sg40
g49
sg42
g43
sg44
VTuesday
p176
sg46
V67
p177
sg48
V10
p178
sg50
V5:12 PM
p179
sg52
g49
sba(i__main__
ForecastDataset
p180
(dp181
g6
Nsg7
V341
p182
sg9
V14
p183
sg11
V2
sg12
V7:40 AM
p184
sg14
g49
sg15
g16
sg17
g64
sg19
VPartly Cloudy
p185
sg21
V6
sg23
VN/A
p186
sg25
V30
p187
sg27
g49
sg29
g49
sg31
g49
sg33
VNNW
p188
sg34
V10
p189
sg35
g49
sg37
g49
sg39
g49
sg40
g49
sg42
g43
sg44
VWednesday
p190
sg46
V61
p191
sg48
V0
sg50
V5:12 PM
p192
sg52
g49
sbasS'night'
p193
(lp194
(i__main__
ForecastDataset
p195
(dp196
g6
Nsg7
V15
p197
sg9
g62
sg11
V2
sg12
g63
sg14
g49
sg15
g16
sg17
g64
sg19
VShowers Late
p198
sg21
g66
sg23
VN/A
p199
sg25
V45
p200
sg27
g49
sg29
g49
sg31
g49
sg33
VNNE
p201
sg34
V8
sg35
g49
sg37
g49
sg39
g49
sg40
g49
sg42
g43
sg44
g71
sg46
V84
p202
sg48
V40
p203
sg50
g74
sg52
g49
sba(i__main__
ForecastDataset
p204
(dp205
g6
Nsg7
V296
p206
sg9
g78
sg11
V2
sg12
g79
sg14
g49
sg15
g16
sg17
g64
sg19
VPartly Cloudy
p207
sg21
V7
sg23
VN/A
p208
sg25
V29
p209
sg27
g49
sg29
g49
sg31
g49
sg33
VWNW
p210
sg34
V18
p211
sg35
g49
sg37
g49
sg39
g49
sg40
g49
sg42
g43
sg44
g84
sg46
V78
p212
sg48
V20
p213
sg50
g87
sg52
g49
sba(i__main__
ForecastDataset
p214
(dp215
g6
Nsg7
V1
sg9
g91
sg11
V2
sg12
g92
sg14
g49
sg15
g16
sg17
g64
sg19
VPartly Cloudy
p216
sg21
V6
sg23
VN/A
p217
sg25
V29
p218
sg27
g49
sg29
g49
sg31
g49
sg33
VN
sg34
V19
p219
sg35
g49
sg37
g49
sg39
g49
sg40
g49
sg42
g43
sg44
g98
sg46
V77
p220
sg48
V20
p221
sg50
g101
sg52
g49
sba(i__main__
ForecastDataset
p222
(dp223
g6
Nsg7
V354
p224
sg9
g105
sg11
V2
sg12
g106
sg14
g49
sg15
g16
sg17
g64
sg19
VPartly Cloudy
p225
sg21
V5
sg23
VN/A
p226
sg25
V29
p227
sg27
g49
sg29
g49
sg31
g49
sg33
VN
sg34
V8
sg35
g49
sg37
g49
sg39
g49
sg40
g49
sg42
g43
sg44
g111
sg46
V69
p228
sg48
V0
sg50
g114
sg52
g49
sba(i__main__
ForecastDataset
p229
(dp230
g6
Nsg7
V159
p231
sg9
g118
sg11
V2
sg12
g119
sg14
g49
sg15
g16
sg17
g64
sg19
VRain
p232
sg21
V5
sg23
VN/A
p233
sg25
V12
p234
sg27
g49
sg29
g49
sg31
g49
sg33
VSSE
p235
sg34
V5
sg35
g49
sg37
g49
sg39
g49
sg40
g49
sg42
g43
sg44
g124
sg46
V70
p236
sg48
V80
p237
sg50
g126
sg52
g49
sba(i__main__
ForecastDataset
p238
(dp239
g6
Nsg7
V349
p240
sg9
g130
sg11
V2
sg12
g131
sg14
g49
sg15
g16
sg17
g64
sg19
VLight Rain
p241
sg21
V6
sg23
VN/A
p242
sg25
V11
p243
sg27
g49
sg29
g49
sg31
g49
sg33
VN
sg34
V13
p244
sg35
g49
sg37
g49
sg39
g49
sg40
g49
sg42
g43
sg44
g137
sg46
V80
p245
sg48
V60
p246
sg50
g140
sg52
g49
sba(i__main__
ForecastDataset
p247
(dp248
g6
Nsg7
V38
p249
sg9
g144
sg11
V2
sg12
g145
sg14
g49
sg15
g16
sg17
g64
sg19
VRain
p250
sg21
V6
sg23
VN/A
p251
sg25
V12
p252
sg27
g49
sg29
g49
sg31
g49
sg33
VNE
p253
sg34
V5
sg35
g49
sg37
g49
sg39
g49
sg40
g49
sg42
g43
sg44
g151
sg46
V81
p254
sg48
V80
p255
sg50
g154
sg52
g49
sba(i__main__
ForecastDataset
p256
(dp257
g6
Nsg7
V359
p258
sg9
g158
sg11
V2
sg12
g159
sg14
g49
sg15
g16
sg17
g64
sg19
VMostly Clear
p259
sg21
V7
sg23
VN/A
p260
sg25
V33
p261
sg27
g49
sg29
g49
sg31
g49
sg33
VN
sg34
V13
p262
sg35
g49
sg37
g49
sg39
g49
sg40
g49
sg42
g43
sg44
g164
sg46
V72
p263
sg48
V10
p264
sg50
g167
sg52
g49
sba(i__main__
ForecastDataset
p265
(dp266
g6
Nsg7
V7
sg9
g170
sg11
V2
sg12
g171
sg14
g49
sg15
g16
sg17
g64
sg19
VPartly Cloudy
p267
sg21
V7
sg23
VN/A
p268
sg25
V29
p269
sg27
g49
sg29
g49
sg31
g49
sg33
VN
sg34
V5
sg35
g49
sg37
g49
sg39
g49
sg40
g49
sg42
g43
sg44
g176
sg46
V69
p270
sg48
V0
sg50
g179
sg52
g49
sba(i__main__
ForecastDataset
p271
(dp272
g6
Nsg7
V252
p273
sg9
g183
sg11
V2
sg12
g184
sg14
g49
sg15
g16
sg17
g64
sg19
VPartly Cloudy
p274
sg21
V6
sg23
VN/A
p275
sg25
V29
p276
sg27
g49
sg29
g49
sg31
g49
sg33
VWSW
p277
sg34
V6
sg35
g49
sg37
g49
sg39
g49
sg40
g49
sg42
g43
sg44
g190
sg46
V70
p278
sg48
V10
p279
sg50
g192
sg52
g49
sbasb.